target datalayout = "e-m:e-p270:32:32-p271:32:32-p272:64:64-i64:64-i128:128-f80:128-n8:16:32:64-S128"
target triple = "x86_64-pc-linux-gnu"

%"struct.SortedTreeNodes::_Indices" = type { [4 x i32] }
%"struct.SortedTreeNodes::XSliceTableData" = type { ptr, ptr, i32, i32, i32, i32, ptr, ptr }

; Function Attrs: mustprogress nounwind uwtable
define noundef nonnull align 4 dereferenceable(16) ptr @_ZN15SortedTreeNodes15XSliceTableData11edgeIndicesEi(ptr noundef nonnull align 8 dereferenceable(48) %0, i32 noundef %1) #4 align 2 {
  %3 = alloca ptr, align 8
  %4 = alloca i32, align 4
  store ptr %0, ptr %3, align 8
  store i32 %1, ptr %4, align 4
  %5 = load ptr, ptr %3, align 8
  %6 = getelementptr inbounds %"struct.SortedTreeNodes::XSliceTableData", ptr %5, i32 0, i32 0
  %7 = load ptr, ptr %6, align 8
  %8 = load i32, ptr %4, align 4
  %9 = getelementptr inbounds %"struct.SortedTreeNodes::XSliceTableData", ptr %5, i32 0, i32 4
  %10 = load i32, ptr %9, align 8
  %11 = sub nsw i32 %8, %10
  %12 = sext i32 %11 to i64
  %13 = getelementptr inbounds %"struct.SortedTreeNodes::_Indices", ptr %7, i64 %12
  ret ptr %13
}