; Function Attrs: mustprogress nofree norecurse nosync nounwind willreturn memory(argmem: read) uwtable
define noundef nonnull align 4 dereferenceable(16) ptr @_ZN15SortedTreeNodes15XSliceTableData11edgeIndicesEi(ptr nocapture noundef nonnull readonly align 8 dereferenceable(48) %0, i32 noundef %1) local_unnamed_addr #16 align 2 {
  %3 = load ptr, ptr %0, align 8
  %4 = getelementptr inbounds i8, ptr %0, i64 24
  %5 = load i32, ptr %4, align 8
  %6 = sub nsw i32 %1, %5
  %7 = sext i32 %6 to i64
  %8 = getelementptr inbounds %"struct.SortedTreeNodes::_Indices", ptr %3, i64 %7
  ret ptr %8
}